target datalayout = "e-m:e-p270:32:32-p271:32:32-p272:64:64-i64:64-i128:128-f80:128-n8:16:32:64-S128"
target triple = "x86_64-pc-linux-gnu"

%struct.GCRef = type { i64 }
%struct.MRef = type { i64 }
%struct.SBufExt = type { ptr, ptr, ptr, %struct.MRef, %union.anon.2, ptr, %struct.GCRef, %struct.GCRef, i32 }
%union.anon.2 = type { %struct.GCRef }
%struct.GCstr = type { %struct.GCRef, i8, i8, i8, i8, i32, i32, i32 }

; Function Attrs: alwaysinline nounwind uwtable
define internal void @lj_bufx_set_cow(ptr noundef %0, ptr noundef %1, ptr noundef %2, i32 noundef %3) #6 {
  %5 = alloca ptr, align 8
  %6 = alloca ptr, align 8
  %7 = alloca ptr, align 8
  %8 = alloca i32, align 4
  store ptr %0, ptr %5, align 8, !tbaa !4
  store ptr %1, ptr %6, align 8, !tbaa !26
  store ptr %2, ptr %7, align 8, !tbaa !32
  store i32 %3, ptr %8, align 4, !tbaa !17
  %9 = load ptr, ptr %5, align 8, !tbaa !4
  %10 = ptrtoint ptr %9 to i64
  %11 = add i64 %10, 3
  %12 = load ptr, ptr %6, align 8, !tbaa !26
  %13 = getelementptr inbounds nuw %struct.SBufExt, ptr %12, i32 0, i32 3
  %14 = getelementptr inbounds nuw %struct.MRef, ptr %13, i32 0, i32 0
  store i64 %11, ptr %14, align 8, !tbaa !38
  %15 = load ptr, ptr %7, align 8, !tbaa !32
  %16 = load ptr, ptr %6, align 8, !tbaa !26
  %17 = getelementptr inbounds nuw %struct.SBufExt, ptr %16, i32 0, i32 2
  store ptr %15, ptr %17, align 8, !tbaa !75
  %18 = load ptr, ptr %6, align 8, !tbaa !26
  %19 = getelementptr inbounds nuw %struct.SBufExt, ptr %18, i32 0, i32 5
  store ptr %15, ptr %19, align 8, !tbaa !62
  %20 = load ptr, ptr %7, align 8, !tbaa !32
  %21 = load i32, ptr %8, align 4, !tbaa !17
  %22 = zext i32 %21 to i64
  %23 = getelementptr inbounds nuw i8, ptr %20, i64 %22
  %24 = load ptr, ptr %6, align 8, !tbaa !26
  %25 = getelementptr inbounds nuw %struct.SBufExt, ptr %24, i32 0, i32 1
  store ptr %23, ptr %25, align 8, !tbaa !80
  %26 = load ptr, ptr %6, align 8, !tbaa !26
  %27 = getelementptr inbounds nuw %struct.SBufExt, ptr %26, i32 0, i32 0
  store ptr %23, ptr %27, align 8, !tbaa !31
  ret void
}

; Function Attrs: nounwind uwtable
define hidden void @lj_serialize_decode(ptr noundef %0, ptr noundef %1, ptr noundef %2) #0 {
  %4 = alloca ptr, align 8
  %5 = alloca ptr, align 8
  %6 = alloca ptr, align 8
  %7 = alloca %struct.SBufExt, align 8
  %8 = alloca ptr, align 8
  store ptr %0, ptr %4, align 8, !tbaa !4
  store ptr %1, ptr %5, align 8, !tbaa !20
  store ptr %2, ptr %6, align 8, !tbaa !33
  call void @llvm.lifetime.start.p0(i64 72, ptr %7) #10
  call void @llvm.lifetime.start.p0(i64 8, ptr %8) #10
  call void @llvm.memset.p0.i64(ptr align 8 %7, i8 0, i64 72, i1 false)
  %9 = load ptr, ptr %4, align 8, !tbaa !4
  %10 = load ptr, ptr %6, align 8, !tbaa !33
  %11 = getelementptr inbounds %struct.GCstr, ptr %10, i64 1
  %12 = load ptr, ptr %6, align 8, !tbaa !33
  %13 = getelementptr inbounds nuw %struct.GCstr, ptr %12, i32 0, i32 7
  %14 = load i32, ptr %13, align 4, !tbaa !35
  call void @lj_bufx_set_cow(ptr noundef %9, ptr noundef %7, ptr noundef %11, i32 noundef %14)
  %15 = getelementptr inbounds nuw %struct.SBufExt, ptr %7, i32 0, i32 8
  store i32 100, ptr %15, align 8, !tbaa !28
  %16 = getelementptr inbounds nuw %struct.SBufExt, ptr %7, i32 0, i32 5
  %17 = load ptr, ptr %16, align 8, !tbaa !62
  %18 = load ptr, ptr %5, align 8, !tbaa !20
  %19 = call ptr @serialize_get(ptr noundef %17, ptr noundef %7, ptr noundef %18)
  store ptr %19, ptr %8, align 8, !tbaa !32
  %20 = load ptr, ptr %8, align 8, !tbaa !32
  %21 = getelementptr inbounds nuw %struct.SBufExt, ptr %7, i32 0, i32 0
  %22 = load ptr, ptr %21, align 8, !tbaa !31
  %23 = icmp ne ptr %20, %22
  br i1 %23, label %24, label %26

24:                                               ; preds = %3
  %25 = load ptr, ptr %4, align 8, !tbaa !4
  call void @lj_err_caller(ptr noundef %25, i32 noundef 3968) #11
  unreachable

26:                                               ; preds = %3
  call void @llvm.lifetime.end.p0(i64 8, ptr %8) #10
  call void @llvm.lifetime.end.p0(i64 72, ptr %7) #10
  ret void
}