; Function Attrs: nounwind uwtable
define hidden void @lj_serialize_decode(ptr noundef %0, ptr noundef writeonly captures(none) %1, ptr noundef %2) local_unnamed_addr #0 {
  %4 = alloca %struct.SBufExt, align 8
  call void @llvm.lifetime.start.p0(i64 72, ptr nonnull %4) #11
  %5 = getelementptr inbounds nuw i8, ptr %4, i64 32
  call void @llvm.memset.p0.i64(ptr noundef nonnull align 8 dereferenceable(72) %5, i8 0, i64 40, i1 false)
  %6 = getelementptr inbounds nuw i8, ptr %2, i64 24
  %7 = getelementptr inbounds nuw i8, ptr %2, i64 20
  %8 = load i32, ptr %7, align 4, !tbaa !24
  %9 = ptrtoint ptr %0 to i64
  %10 = add i64 %9, 3
  %11 = getelementptr inbounds nuw i8, ptr %4, i64 24
  store i64 %10, ptr %11, align 8, !tbaa !28
  %12 = getelementptr inbounds nuw i8, ptr %4, i64 16
  store ptr %6, ptr %12, align 8, !tbaa !77
  %13 = getelementptr inbounds nuw i8, ptr %4, i64 40
  store ptr %6, ptr %13, align 8, !tbaa !69
  %14 = zext i32 %8 to i64
  %15 = getelementptr inbounds nuw i8, ptr %6, i64 %14
  %16 = getelementptr inbounds nuw i8, ptr %4, i64 8
  store ptr %15, ptr %16, align 8, !tbaa !26
  store ptr %15, ptr %4, align 8, !tbaa !22
  %17 = getelementptr inbounds nuw i8, ptr %4, i64 64
  store i32 100, ptr %17, align 8, !tbaa !18
  %18 = call fastcc ptr @serialize_get(ptr noundef nonnull %6, ptr noundef nonnull %4, ptr noundef %1)
  %19 = load ptr, ptr %4, align 8, !tbaa !22
  %.not = icmp eq ptr %18, %19
  br i1 %.not, label %21, label %20

20:                                               ; preds = %3
  call void @lj_err_caller(ptr noundef %0, i32 noundef 3968) #12
  unreachable

21:                                               ; preds = %3
  call void @llvm.lifetime.end.p0(i64 72, ptr nonnull %4) #11
  ret void
}